target datalayout = "e-m:e-p270:32:32-p271:32:32-p272:64:64-i64:64-i128:128-f80:128-n8:16:32:64-S128"
target triple = "x86_64-pc-linux-gnu"

%struct.BrotliDecoderStateStruct = type { i32, i32, %struct.BrotliBitReader, ptr, ptr, ptr, %union.anon, i64, i32, i32, i32, i32, i32, i32, [4 x i32], i32, i32, ptr, ptr, ptr, ptr, ptr, ptr, %struct.HuffmanTreeGroup, %struct.HuffmanTreeGroup, %struct.HuffmanTreeGroup, ptr, ptr, i32, i32, [3 x i64], i64, [3 x i64], [6 x i64], i64, i64, i64, ptr, ptr, i64, i64, i64, [65 x i32], i32, i32, i8, ptr, ptr, ptr, i64, i32, i32, i32, i32, i32, i32, i64, ptr, ptr, ptr, ptr, [8 x i32], %union.anon.0 }
%struct.BrotliBitReader = type { i64, i64, ptr, ptr, ptr }
%union.anon = type { i64 }
%struct.HuffmanTreeGroup = type { ptr, ptr, i16, i16, i16 }
%union.anon.0 = type { %struct.BrotliMetablockBodyArena }
%struct.BrotliMetablockBodyArena = type { [544 x i8], [544 x i64] }

; Function Attrs: nounwind uwtable
define i32 @BrotliDecoderSetParameter(ptr noundef %0, i32 noundef %1, i32 noundef %2) #0 {
  %4 = alloca i32, align 4
  %5 = alloca ptr, align 8
  %6 = alloca i32, align 4
  %7 = alloca i32, align 4
  store ptr %0, ptr %5, align 8, !tbaa !3
  store i32 %1, ptr %6, align 4, !tbaa !8
  store i32 %2, ptr %7, align 4, !tbaa !8
  %8 = load ptr, ptr %5, align 8, !tbaa !3
  %9 = getelementptr inbounds nuw %struct.BrotliDecoderStateStruct, ptr %8, i32 0, i32 0
  %10 = load i32, ptr %9, align 8, !tbaa !10
  %11 = icmp ne i32 %10, 0
  br i1 %11, label %12, label %13

12:                                               ; preds = %3
  store i32 0, ptr %4, align 4
  br label %44

13:                                               ; preds = %3
  %14 = load i32, ptr %6, align 4, !tbaa !8
  switch i32 %14, label %43 [
    i32 0, label %15
    i32 1, label %28
  ]

15:                                               ; preds = %13
  %16 = load i32, ptr %7, align 4, !tbaa !8
  %17 = icmp ne i32 %16, 0
  %18 = xor i1 %17, true
  %19 = xor i1 %18, true
  %20 = select i1 %19, i32 0, i32 1
  %21 = load ptr, ptr %5, align 8, !tbaa !3
  %22 = getelementptr inbounds nuw %struct.BrotliDecoderStateStruct, ptr %21, i32 0, i32 55
  %23 = load i32, ptr %22, align 4
  %24 = and i32 %20, 1
  %25 = shl i32 %24, 4
  %26 = and i32 %23, -17
  %27 = or i32 %26, %25
  store i32 %27, ptr %22, align 4
  store i32 1, ptr %4, align 4
  br label %44

28:                                               ; preds = %13
  %29 = load i32, ptr %7, align 4, !tbaa !8
  %30 = icmp ne i32 %29, 0
  %31 = xor i1 %30, true
  %32 = xor i1 %31, true
  %33 = xor i1 %32, true
  %34 = xor i1 %33, true
  %35 = select i1 %34, i32 1, i32 0
  %36 = load ptr, ptr %5, align 8, !tbaa !3
  %37 = getelementptr inbounds nuw %struct.BrotliDecoderStateStruct, ptr %36, i32 0, i32 55
  %38 = load i32, ptr %37, align 4
  %39 = and i32 %35, 1
  %40 = shl i32 %39, 5
  %41 = and i32 %38, -33
  %42 = or i32 %41, %40
  store i32 %42, ptr %37, align 4
  store i32 1, ptr %4, align 4
  br label %44

43:                                               ; preds = %13
  store i32 0, ptr %4, align 4
  br label %44

44:                                               ; preds = %43, %28, %15, %12
  %45 = load i32, ptr %4, align 4
  ret i32 %45
}